target datalayout = "e-m:e-p270:32:32-p271:32:32-p272:64:64-i64:64-i128:128-f80:128-n8:16:32:64-S128"
target triple = "x86_64-pc-linux-gnu"

%struct.Gia_ParAbs_t_ = type { i32, i32, i32, i32, i32, i32, i32, i32, i32, i32, i32, i32, i32, i32, i32, i32, i32, i32, i32 }
%struct.Aig_Man_t_ = type { ptr, ptr, ptr, ptr, ptr, ptr, ptr, %struct.Aig_Obj_t_, i32, i32, i32, i32, i32, i32, [7 x i32], i32, ptr, i32, ptr, i32, ptr, i32, i32, i32, ptr, i32, i32, i32, i32, i32, ptr, ptr, i32, ptr, ptr, i32, ptr, ptr, i32, i32, i32, ptr, ptr, ptr, ptr, ptr, ptr, ptr, ptr, ptr, ptr, ptr, ptr, ptr, ptr, i32, ptr, ptr, ptr, ptr, i32, i64, i64, i64, ptr, ptr }
%struct.Aig_Obj_t_ = type { %union.anon, ptr, ptr, i64, i32, i32, %union.anon.0 }
%union.anon = type { ptr }
%union.anon.0 = type { ptr }
%struct.Vec_Int_t_ = type { i32, i32, ptr }

@.str.13 = private unnamed_addr constant [46 x i8] c"Performing counter-example-based refinement.\0A\00", align 1
@.str.14 = private unnamed_addr constant [8 x i8] c"Init : \00", align 1
@.str.15 = private unnamed_addr constant [25 x i8] c"Refining abstraction...\0A\00", align 1
@.str.16 = private unnamed_addr constant [12 x i8] c"ITER %4d : \00", align 1
@.str.17 = private unnamed_addr constant [9 x i8] c"gabs.aig\00", align 1
@.str.18 = private unnamed_addr constant [65 x i8] c"Refinements is stopped because flop reduction is less than %d%%\0A\00", align 1

; Function Attrs: nounwind uwtable
define internal ptr @Vec_IntAlloc(i32 noundef %0) #0 {
  %2 = alloca i32, align 4
  %3 = alloca ptr, align 8
  store i32 %0, ptr %2, align 4
  %4 = call noalias ptr @malloc(i64 noundef 16) #10
  store ptr %4, ptr %3, align 8
  %5 = load i32, ptr %2, align 4
  %6 = icmp sgt i32 %5, 0
  br i1 %6, label %7, label %11

7:                                                ; preds = %1
  %8 = load i32, ptr %2, align 4
  %9 = icmp slt i32 %8, 16
  br i1 %9, label %10, label %11

10:                                               ; preds = %7
  store i32 16, ptr %2, align 4
  br label %11

11:                                               ; preds = %10, %7, %1
  %12 = load ptr, ptr %3, align 8
  %13 = getelementptr inbounds %struct.Vec_Int_t_, ptr %12, i32 0, i32 1
  store i32 0, ptr %13, align 4
  %14 = load i32, ptr %2, align 4
  %15 = load ptr, ptr %3, align 8
  %16 = getelementptr inbounds %struct.Vec_Int_t_, ptr %15, i32 0, i32 0
  store i32 %14, ptr %16, align 8
  %17 = load ptr, ptr %3, align 8
  %18 = getelementptr inbounds %struct.Vec_Int_t_, ptr %17, i32 0, i32 0
  %19 = load i32, ptr %18, align 8
  %20 = icmp ne i32 %19, 0
  br i1 %20, label %21, label %28

21:                                               ; preds = %11
  %22 = load ptr, ptr %3, align 8
  %23 = getelementptr inbounds %struct.Vec_Int_t_, ptr %22, i32 0, i32 0
  %24 = load i32, ptr %23, align 8
  %25 = sext i32 %24 to i64
  %26 = mul i64 4, %25
  %27 = call noalias ptr @malloc(i64 noundef %26) #10
  br label %29

28:                                               ; preds = %11
  br label %29

29:                                               ; preds = %28, %21
  %30 = phi ptr [ %27, %21 ], [ null, %28 ]
  %31 = load ptr, ptr %3, align 8
  %32 = getelementptr inbounds %struct.Vec_Int_t_, ptr %31, i32 0, i32 2
  store ptr %30, ptr %32, align 8
  %33 = load ptr, ptr %3, align 8
  ret ptr %33
}

; Function Attrs: nounwind uwtable
define internal void @Vec_IntFree(ptr noundef %0) #0 {
  %2 = alloca ptr, align 8
  store ptr %0, ptr %2, align 8
  %3 = load ptr, ptr %2, align 8
  %4 = getelementptr inbounds %struct.Vec_Int_t_, ptr %3, i32 0, i32 2
  %5 = load ptr, ptr %4, align 8
  %6 = icmp ne ptr %5, null
  br i1 %6, label %7, label %13

7:                                                ; preds = %1
  %8 = load ptr, ptr %2, align 8
  %9 = getelementptr inbounds %struct.Vec_Int_t_, ptr %8, i32 0, i32 2
  %10 = load ptr, ptr %9, align 8
  call void @free(ptr noundef %10) #9
  %11 = load ptr, ptr %2, align 8
  %12 = getelementptr inbounds %struct.Vec_Int_t_, ptr %11, i32 0, i32 2
  store ptr null, ptr %12, align 8
  br label %14

13:                                               ; preds = %1
  br label %14

14:                                               ; preds = %13, %7
  %15 = load ptr, ptr %2, align 8
  %16 = icmp ne ptr %15, null
  br i1 %16, label %17, label %19

17:                                               ; preds = %14
  %18 = load ptr, ptr %2, align 8
  call void @free(ptr noundef %18) #9
  store ptr null, ptr %2, align 8
  br label %20

19:                                               ; preds = %14
  br label %20

20:                                               ; preds = %19, %17
  ret void
}

; Function Attrs: nounwind uwtable
define internal i32 @Aig_ManRegNum(ptr noundef %0) #0 {
  %2 = alloca ptr, align 8
  store ptr %0, ptr %2, align 8
  %3 = load ptr, ptr %2, align 8
  %4 = getelementptr inbounds %struct.Aig_Man_t_, ptr %3, i32 0, i32 8
  %5 = load i32, ptr %4, align 8
  ret i32 %5
}

; Function Attrs: nounwind uwtable
define internal ptr @Vec_IntStartNatural(i32 noundef %0) #0 {
  %2 = alloca i32, align 4
  %3 = alloca ptr, align 8
  %4 = alloca i32, align 4
  store i32 %0, ptr %2, align 4
  %5 = load i32, ptr %2, align 4
  %6 = call ptr @Vec_IntAlloc(i32 noundef %5)
  store ptr %6, ptr %3, align 8
  %7 = load i32, ptr %2, align 4
  %8 = load ptr, ptr %3, align 8
  %9 = getelementptr inbounds %struct.Vec_Int_t_, ptr %8, i32 0, i32 1
  store i32 %7, ptr %9, align 4
  store i32 0, ptr %4, align 4
  br label %10

10:                                               ; preds = %22, %1
  %11 = load i32, ptr %4, align 4
  %12 = load i32, ptr %2, align 4
  %13 = icmp slt i32 %11, %12
  br i1 %13, label %14, label %25

14:                                               ; preds = %10
  %15 = load i32, ptr %4, align 4
  %16 = load ptr, ptr %3, align 8
  %17 = getelementptr inbounds %struct.Vec_Int_t_, ptr %16, i32 0, i32 2
  %18 = load ptr, ptr %17, align 8
  %19 = load i32, ptr %4, align 4
  %20 = sext i32 %19 to i64
  %21 = getelementptr inbounds i32, ptr %18, i64 %20
  store i32 %15, ptr %21, align 4
  br label %22

22:                                               ; preds = %14
  %23 = load i32, ptr %4, align 4
  %24 = add nsw i32 %23, 1
  store i32 %24, ptr %4, align 4
  br label %10, !llvm.loop !15

25:                                               ; preds = %10
  %26 = load ptr, ptr %3, align 8
  ret ptr %26
}

; Function Attrs: nounwind uwtable
define ptr @Saig_ManCexAbstractionFlops(ptr noundef %0, ptr noundef %1) #0 {
  %3 = alloca ptr, align 8
  %4 = alloca ptr, align 8
  %5 = alloca i32, align 4
  %6 = alloca ptr, align 8
  %7 = alloca ptr, align 8
  %8 = alloca ptr, align 8
  %9 = alloca i32, align 4
  store ptr %0, ptr %3, align 8
  store ptr %1, ptr %4, align 8
  store i32 0, ptr %5, align 4
  %10 = load ptr, ptr %4, align 8
  %11 = getelementptr inbounds %struct.Gia_ParAbs_t_, ptr %10, i32 0, i32 15
  %12 = load i32, ptr %11, align 4
  %13 = icmp ne i32 %12, 0
  br i1 %13, label %14, label %16

14:                                               ; preds = %2
  %15 = call i32 (ptr, ...) @printf(ptr noundef @.str.13)
  br label %16

16:                                               ; preds = %14, %2
  %17 = load ptr, ptr %3, align 8
  call void @Aig_ManSetCioIds(ptr noundef %17)
  %18 = call ptr @Vec_IntStartNatural(i32 noundef 1)
  store ptr %18, ptr %8, align 8
  %19 = load ptr, ptr %3, align 8
  %20 = load ptr, ptr %8, align 8
  %21 = call ptr @Saig_ManDupAbstraction(ptr noundef %19, ptr noundef %20)
  store ptr %21, ptr %6, align 8
  %22 = load ptr, ptr %4, align 8
  %23 = getelementptr inbounds %struct.Gia_ParAbs_t_, ptr %22, i32 0, i32 15
  %24 = load i32, ptr %23, align 4
  %25 = icmp ne i32 %24, 0
  br i1 %25, label %29, label %26

26:                                               ; preds = %16
  %27 = call i32 (ptr, ...) @printf(ptr noundef @.str.14)
  %28 = load ptr, ptr %6, align 8
  call void @Aig_ManPrintStats(ptr noundef %28)
  br label %29

29:                                               ; preds = %26, %16
  %30 = call i32 (ptr, ...) @printf(ptr noundef @.str.15)
  store i32 0, ptr %9, align 4
  br label %31

31:                                               ; preds = %124, %29
  %32 = load ptr, ptr %3, align 8
  %33 = load ptr, ptr %6, align 8
  %34 = load ptr, ptr %8, align 8
  %35 = load ptr, ptr %4, align 8
  %36 = getelementptr inbounds %struct.Gia_ParAbs_t_, ptr %35, i32 0, i32 5
  %37 = load i32, ptr %36, align 4
  %38 = load ptr, ptr %4, align 8
  %39 = getelementptr inbounds %struct.Gia_ParAbs_t_, ptr %38, i32 0, i32 6
  %40 = load i32, ptr %39, align 4
  %41 = load ptr, ptr %4, align 8
  %42 = getelementptr inbounds %struct.Gia_ParAbs_t_, ptr %41, i32 0, i32 12
  %43 = load i32, ptr %42, align 4
  %44 = load ptr, ptr %4, align 8
  %45 = getelementptr inbounds %struct.Gia_ParAbs_t_, ptr %44, i32 0, i32 13
  %46 = load i32, ptr %45, align 4
  %47 = load ptr, ptr %4, align 8
  %48 = getelementptr inbounds %struct.Gia_ParAbs_t_, ptr %47, i32 0, i32 15
  %49 = load i32, ptr %48, align 4
  %50 = load ptr, ptr %4, align 8
  %51 = getelementptr inbounds %struct.Gia_ParAbs_t_, ptr %50, i32 0, i32 14
  %52 = load i32, ptr %51, align 4
  %53 = icmp ne i32 %52, 0
  br i1 %53, label %54, label %55

54:                                               ; preds = %31
  br label %56

55:                                               ; preds = %31
  br label %56

56:                                               ; preds = %55, %54
  %57 = phi ptr [ %5, %54 ], [ null, %55 ]
  %58 = load ptr, ptr %4, align 8
  %59 = getelementptr inbounds %struct.Gia_ParAbs_t_, ptr %58, i32 0, i32 17
  %60 = load ptr, ptr %4, align 8
  %61 = getelementptr inbounds %struct.Gia_ParAbs_t_, ptr %60, i32 0, i32 18
  %62 = call ptr @Saig_ManCexRefine(ptr noundef %32, ptr noundef %33, ptr noundef %34, i32 noundef %37, i32 noundef %40, i32 noundef %43, i32 noundef %46, i32 noundef %49, ptr noundef %57, ptr noundef %59, ptr noundef %61)
  store ptr %62, ptr %7, align 8
  %63 = load ptr, ptr %7, align 8
  %64 = icmp eq ptr %63, null
  br i1 %64, label %65, label %86

65:                                               ; preds = %56
  %66 = load ptr, ptr %3, align 8
  %67 = getelementptr inbounds %struct.Aig_Man_t_, ptr %66, i32 0, i32 51
  %68 = load ptr, ptr %67, align 8
  %69 = icmp ne ptr %68, null
  br i1 %69, label %70, label %76

70:                                               ; preds = %65
  %71 = load ptr, ptr %3, align 8
  %72 = getelementptr inbounds %struct.Aig_Man_t_, ptr %71, i32 0, i32 51
  %73 = load ptr, ptr %72, align 8
  call void @free(ptr noundef %73) #9
  %74 = load ptr, ptr %3, align 8
  %75 = getelementptr inbounds %struct.Aig_Man_t_, ptr %74, i32 0, i32 51
  store ptr null, ptr %75, align 8
  br label %77

76:                                               ; preds = %65
  br label %77

77:                                               ; preds = %76, %70
  %78 = load ptr, ptr %6, align 8
  %79 = getelementptr inbounds %struct.Aig_Man_t_, ptr %78, i32 0, i32 51
  %80 = load ptr, ptr %79, align 8
  %81 = load ptr, ptr %3, align 8
  %82 = getelementptr inbounds %struct.Aig_Man_t_, ptr %81, i32 0, i32 51
  store ptr %80, ptr %82, align 8
  %83 = load ptr, ptr %6, align 8
  %84 = getelementptr inbounds %struct.Aig_Man_t_, ptr %83, i32 0, i32 51
  store ptr null, ptr %84, align 8
  %85 = load ptr, ptr %6, align 8
  call void @Aig_ManStop(ptr noundef %85)
  br label %127

86:                                               ; preds = %56
  %87 = load ptr, ptr %6, align 8
  call void @Aig_ManStop(ptr noundef %87)
  %88 = load ptr, ptr %7, align 8
  store ptr %88, ptr %6, align 8
  %89 = load i32, ptr %9, align 4
  %90 = call i32 (ptr, ...) @printf(ptr noundef @.str.16, i32 noundef %89)
  %91 = load ptr, ptr %4, align 8
  %92 = getelementptr inbounds %struct.Gia_ParAbs_t_, ptr %91, i32 0, i32 15
  %93 = load i32, ptr %92, align 4
  %94 = icmp ne i32 %93, 0
  br i1 %94, label %97, label %95

95:                                               ; preds = %86
  %96 = load ptr, ptr %6, align 8
  call void @Aig_ManPrintStats(ptr noundef %96)
  br label %97

97:                                               ; preds = %95, %86
  %98 = load ptr, ptr %6, align 8
  call void @Ioa_WriteAiger(ptr noundef %98, ptr noundef @.str.17, i32 noundef 0, i32 noundef 0)
  %99 = load ptr, ptr %3, align 8
  %100 = call i32 @Aig_ManRegNum(ptr noundef %99)
  %101 = load ptr, ptr %6, align 8
  %102 = call i32 @Aig_ManRegNum(ptr noundef %101)
  %103 = sub nsw i32 %100, %102
  %104 = sitofp i32 %103 to double
  %105 = fmul double 1.000000e+02, %104
  %106 = load ptr, ptr %3, align 8
  %107 = call i32 @Aig_ManRegNum(ptr noundef %106)
  %108 = sitofp i32 %107 to double
  %109 = fdiv double %105, %108
  %110 = load ptr, ptr %4, align 8
  %111 = getelementptr inbounds %struct.Gia_ParAbs_t_, ptr %110, i32 0, i32 8
  %112 = load i32, ptr %111, align 4
  %113 = sitofp i32 %112 to double
  %114 = fmul double 1.000000e+00, %113
  %115 = fcmp olt double %109, %114
  br i1 %115, label %116, label %123

116:                                              ; preds = %97
  %117 = load ptr, ptr %4, align 8
  %118 = getelementptr inbounds %struct.Gia_ParAbs_t_, ptr %117, i32 0, i32 8
  %119 = load i32, ptr %118, align 4
  %120 = call i32 (ptr, ...) @printf(ptr noundef @.str.18, i32 noundef %119)
  %121 = load ptr, ptr %6, align 8
  call void @Aig_ManStop(ptr noundef %121)
  store ptr null, ptr %6, align 8
  %122 = load ptr, ptr %8, align 8
  call void @Vec_IntFree(ptr noundef %122)
  store ptr null, ptr %8, align 8
  br label %127

123:                                              ; preds = %97
  br label %124

124:                                              ; preds = %123
  %125 = load i32, ptr %9, align 4
  %126 = add nsw i32 %125, 1
  store i32 %126, ptr %9, align 4
  br label %31

127:                                              ; preds = %116, %77
  %128 = load ptr, ptr %8, align 8
  ret ptr %128
}