; Function Attrs: nounwind uwtable
define noundef ptr @Saig_ManCexAbstractionFlops(ptr noundef %0, ptr noundef %1) local_unnamed_addr #2 {
  %3 = alloca i32, align 4
  store i32 0, ptr %3, align 4
  %4 = getelementptr inbounds nuw i8, ptr %1, i64 60
  %5 = load i32, ptr %4, align 4
  %.not = icmp eq i32 %5, 0
  br i1 %.not, label %7, label %6

6:                                                ; preds = %2
  %puts = tail call i32 @puts(ptr nonnull dereferenceable(1) @str.6)
  br label %7

7:                                                ; preds = %6, %2
  tail call void @Aig_ManSetCioIds(ptr noundef %0) #18
  %8 = tail call noalias dereferenceable_or_null(16) ptr @malloc(i64 noundef 16) #21
  %9 = getelementptr inbounds nuw i8, ptr %8, i64 4
  store i32 16, ptr %8, align 8
  %10 = tail call noalias dereferenceable_or_null(64) ptr @malloc(i64 noundef 64) #21
  %11 = getelementptr inbounds nuw i8, ptr %8, i64 8
  store ptr %10, ptr %11, align 8
  store i32 1, ptr %9, align 4
  store i32 0, ptr %10, align 4
  %12 = tail call ptr @Saig_ManDupAbstraction(ptr noundef %0, ptr noundef nonnull %8) #18
  %13 = load i32, ptr %4, align 4
  %.not43 = icmp eq i32 %13, 0
  br i1 %.not43, label %14, label %16

14:                                               ; preds = %7
  %15 = tail call i32 (ptr, ...) @printf(ptr noundef nonnull dereferenceable(1) @.str.14)
  tail call void @Aig_ManPrintStats(ptr noundef %12) #18
  br label %16

16:                                               ; preds = %14, %7
  %puts44 = tail call i32 @puts(ptr nonnull dereferenceable(1) @str.7)
  %17 = getelementptr inbounds nuw i8, ptr %1, i64 20
  %18 = getelementptr inbounds nuw i8, ptr %1, i64 24
  %19 = getelementptr inbounds nuw i8, ptr %1, i64 48
  %20 = getelementptr inbounds nuw i8, ptr %1, i64 52
  %21 = getelementptr inbounds nuw i8, ptr %1, i64 56
  %22 = getelementptr inbounds nuw i8, ptr %1, i64 68
  %23 = getelementptr inbounds nuw i8, ptr %1, i64 72
  %24 = getelementptr i8, ptr %0, i64 104
  %25 = getelementptr inbounds nuw i8, ptr %1, i64 32
  br label %26

26:                                               ; preds = %46, %16
  %.040 = phi ptr [ %12, %16 ], [ %33, %46 ]
  %.0 = phi i32 [ 0, %16 ], [ %56, %46 ]
  %27 = load i32, ptr %17, align 4
  %28 = load i32, ptr %18, align 4
  %29 = load i32, ptr %19, align 4
  %30 = load i32, ptr %20, align 4
  %31 = load i32, ptr %4, align 4
  %32 = load i32, ptr %21, align 4
  %.not45 = icmp eq i32 %32, 0
  %. = select i1 %.not45, ptr null, ptr %3
  %33 = call ptr @Saig_ManCexRefine(ptr noundef %0, ptr noundef %.040, ptr noundef nonnull %8, i32 noundef %27, i32 noundef %28, i32 noundef %29, i32 noundef %30, i32 noundef %31, ptr noundef %., ptr noundef nonnull %22, ptr noundef nonnull %23)
  %34 = icmp eq ptr %33, null
  br i1 %34, label %35, label %42

35:                                               ; preds = %26
  %36 = getelementptr inbounds nuw i8, ptr %0, i64 408
  %37 = load ptr, ptr %36, align 8
  %.not47 = icmp eq ptr %37, null
  br i1 %.not47, label %39, label %38

38:                                               ; preds = %35
  call void @free(ptr noundef nonnull %37) #18
  store ptr null, ptr %36, align 8
  br label %39

39:                                               ; preds = %35, %38
  %40 = getelementptr inbounds nuw i8, ptr %.040, i64 408
  %41 = load ptr, ptr %40, align 8
  store ptr %41, ptr %36, align 8
  store ptr null, ptr %40, align 8
  call void @Aig_ManStop(ptr noundef %.040) #18
  br label %61

42:                                               ; preds = %26
  call void @Aig_ManStop(ptr noundef %.040) #18
  %43 = call i32 (ptr, ...) @printf(ptr noundef nonnull dereferenceable(1) @.str.16, i32 noundef %.0)
  %44 = load i32, ptr %4, align 4
  %.not46 = icmp eq i32 %44, 0
  br i1 %.not46, label %45, label %46

45:                                               ; preds = %42
  call void @Aig_ManPrintStats(ptr noundef nonnull %33) #18
  br label %46

46:                                               ; preds = %45, %42
  call void @Ioa_WriteAiger(ptr noundef nonnull %33, ptr noundef nonnull @.str.17, i32 noundef 0, i32 noundef 0) #18
  %.val49 = load i32, ptr %24, align 8
  %47 = getelementptr i8, ptr %33, i64 104
  %.val48 = load i32, ptr %47, align 8
  %48 = sub nsw i32 %.val49, %.val48
  %49 = sitofp i32 %48 to double
  %50 = fmul double %49, 1.000000e+02
  %51 = sitofp i32 %.val49 to double
  %52 = fdiv double %50, %51
  %53 = load i32, ptr %25, align 4
  %54 = sitofp i32 %53 to double
  %55 = fcmp olt double %52, %54
  %56 = add nuw nsw i32 %.0, 1
  br i1 %55, label %57, label %26

57:                                               ; preds = %46
  %58 = call i32 (ptr, ...) @printf(ptr noundef nonnull dereferenceable(1) @.str.18, i32 noundef %53)
  call void @Aig_ManStop(ptr noundef nonnull %33) #18
  %59 = load ptr, ptr %11, align 8
  %.not.i = icmp eq ptr %59, null
  br i1 %.not.i, label %Vec_IntFree.exit, label %60

60:                                               ; preds = %57
  call void @free(ptr noundef nonnull %59) #18
  br label %Vec_IntFree.exit

Vec_IntFree.exit:                                 ; preds = %57, %60
  call void @free(ptr noundef nonnull %8) #18
  br label %61

61:                                               ; preds = %Vec_IntFree.exit, %39
  %.039 = phi ptr [ %8, %39 ], [ null, %Vec_IntFree.exit ]
  ret ptr %.039
}